target datalayout = "e-m:e-p270:32:32-p271:32:32-p272:64:64-i64:64-i128:128-f80:128-n8:16:32:64-S128"
target triple = "x86_64-unknown-linux-gnu"

%struct.MonitorHMP = type { %struct.Monitor, i8, ptr }
%struct.Monitor = type { %struct.CharBackend, i32, i8, i8, i8, ptr, %union.anon, %struct.QemuMutex, %struct.anon, ptr, i32, i32, i32 }
%struct.CharBackend = type { ptr, ptr, ptr, ptr, ptr, ptr, i32, i32 }
%union.anon = type { %struct.QTailQLink }
%struct.QTailQLink = type { ptr, ptr }
%struct.QemuMutex = type { %union.pthread_mutex_t, i8 }
%union.pthread_mutex_t = type { %struct.__pthread_mutex_s }
%struct.__pthread_mutex_s = type { i32, i32, i32, i32, i32, i16, i16, %struct.__pthread_internal_list }
%struct.__pthread_internal_list = type { ptr, ptr }
%struct.anon = type { ptr }

@.str = private unnamed_addr constant [8 x i8] c"(qemu) \00", align 1

; Function Attrs: nounwind sspstrong uwtable
define dso_local void @monitor_read_command(ptr noundef %mon, i32 noundef %show_prompt) #0 {
entry:
  %mon.addr = alloca ptr, align 8
  %show_prompt.addr = alloca i32, align 4
  store ptr %mon, ptr %mon.addr, align 8
  store i32 %show_prompt, ptr %show_prompt.addr, align 4
  %0 = load ptr, ptr %mon.addr, align 8
  %rs = getelementptr inbounds %struct.MonitorHMP, ptr %0, i32 0, i32 2
  %1 = load ptr, ptr %rs, align 8
  %tobool = icmp ne ptr %1, null
  br i1 %tobool, label %if.end, label %if.then

if.then:                                          ; preds = %entry
  br label %if.end5

if.end:                                           ; preds = %entry
  %2 = load ptr, ptr %mon.addr, align 8
  %rs1 = getelementptr inbounds %struct.MonitorHMP, ptr %2, i32 0, i32 2
  %3 = load ptr, ptr %rs1, align 8
  call void @readline_start(ptr noundef %3, ptr noundef @.str, i32 noundef 0, ptr noundef @monitor_command_cb, ptr noundef null)
  %4 = load i32, ptr %show_prompt.addr, align 4
  %tobool2 = icmp ne i32 %4, 0
  br i1 %tobool2, label %if.then3, label %if.end5

if.then3:                                         ; preds = %if.end
  %5 = load ptr, ptr %mon.addr, align 8
  %rs4 = getelementptr inbounds %struct.MonitorHMP, ptr %5, i32 0, i32 2
  %6 = load ptr, ptr %rs4, align 8
  call void @readline_show_prompt(ptr noundef %6)
  br label %if.end5

if.end5:                                          ; preds = %if.then3, %if.end, %if.then
  ret void
}

; Function Attrs: nounwind sspstrong uwtable
define dso_local void @monitor_init_hmp(ptr noundef %chr, i1 noundef zeroext %use_readline, ptr noundef %errp) #0 {
entry:
  %chr.addr = alloca ptr, align 8
  %use_readline.addr = alloca i8, align 1
  %errp.addr = alloca ptr, align 8
  %mon = alloca ptr, align 8
  store ptr %chr, ptr %chr.addr, align 8
  %frombool = zext i1 %use_readline to i8
  store i8 %frombool, ptr %use_readline.addr, align 1
  store ptr %errp, ptr %errp.addr, align 8
  %call = call noalias ptr @g_malloc0_n(i64 noundef 1, i64 noundef 184) #16
  store ptr %call, ptr %mon, align 8
  %0 = load ptr, ptr %mon, align 8
  %common = getelementptr inbounds %struct.MonitorHMP, ptr %0, i32 0, i32 0
  %chr1 = getelementptr inbounds %struct.Monitor, ptr %common, i32 0, i32 0
  %1 = load ptr, ptr %chr.addr, align 8
  %2 = load ptr, ptr %errp.addr, align 8
  %call2 = call zeroext i1 @qemu_chr_fe_init(ptr noundef %chr1, ptr noundef %1, ptr noundef %2)
  br i1 %call2, label %if.end, label %if.then

if.then:                                          ; preds = %entry
  %3 = load ptr, ptr %mon, align 8
  call void @g_free(ptr noundef %3)
  br label %return

if.end:                                           ; preds = %entry
  %4 = load ptr, ptr %mon, align 8
  %common3 = getelementptr inbounds %struct.MonitorHMP, ptr %4, i32 0, i32 0
  call void @monitor_data_init(ptr noundef %common3, i1 noundef zeroext false, i1 noundef zeroext false, i1 noundef zeroext false)
  %5 = load i8, ptr %use_readline.addr, align 1
  %tobool = trunc i8 %5 to i1
  %6 = load ptr, ptr %mon, align 8
  %use_readline4 = getelementptr inbounds %struct.MonitorHMP, ptr %6, i32 0, i32 1
  %frombool5 = zext i1 %tobool to i8
  store i8 %frombool5, ptr %use_readline4, align 8
  %7 = load ptr, ptr %mon, align 8
  %use_readline6 = getelementptr inbounds %struct.MonitorHMP, ptr %7, i32 0, i32 1
  %8 = load i8, ptr %use_readline6, align 8
  %tobool7 = trunc i8 %8 to i1
  br i1 %tobool7, label %if.then8, label %if.end10

if.then8:                                         ; preds = %if.end
  %9 = load ptr, ptr %mon, align 8
  %call9 = call ptr @readline_init(ptr noundef @monitor_readline_printf, ptr noundef @monitor_readline_flush, ptr noundef %9, ptr noundef @monitor_find_completion)
  %10 = load ptr, ptr %mon, align 8
  %rs = getelementptr inbounds %struct.MonitorHMP, ptr %10, i32 0, i32 2
  store ptr %call9, ptr %rs, align 8
  %11 = load ptr, ptr %mon, align 8
  call void @monitor_read_command(ptr noundef %11, i32 noundef 0)
  br label %if.end10

if.end10:                                         ; preds = %if.then8, %if.end
  %12 = load ptr, ptr %mon, align 8
  %common11 = getelementptr inbounds %struct.MonitorHMP, ptr %12, i32 0, i32 0
  %chr12 = getelementptr inbounds %struct.Monitor, ptr %common11, i32 0, i32 0
  %13 = load ptr, ptr %mon, align 8
  %common13 = getelementptr inbounds %struct.MonitorHMP, ptr %13, i32 0, i32 0
  call void @qemu_chr_fe_set_handlers(ptr noundef %chr12, ptr noundef @monitor_can_read, ptr noundef @monitor_read, ptr noundef @monitor_event, ptr noundef null, ptr noundef %common13, ptr noundef null, i1 noundef zeroext true)
  %14 = load ptr, ptr %mon, align 8
  %common14 = getelementptr inbounds %struct.MonitorHMP, ptr %14, i32 0, i32 0
  call void @monitor_list_append(ptr noundef %common14)
  br label %return

return:                                           ; preds = %if.end10, %if.then
  ret void
}