; Function Attrs: nounwind sspstrong uwtable
define dso_local void @monitor_init_hmp(ptr noundef %chr, i1 noundef zeroext %use_readline, ptr noundef %errp) local_unnamed_addr #0 {
entry:
  %call = tail call noalias dereferenceable_or_null(184) ptr @g_malloc0_n(i64 noundef 1, i64 noundef 184) #24
  %call2 = tail call zeroext i1 @qemu_chr_fe_init(ptr noundef %call, ptr noundef %chr, ptr noundef %errp) #19
  br i1 %call2, label %if.end, label %if.then

if.then:                                          ; preds = %entry
  tail call void @g_free(ptr noundef %call) #19
  br label %return

if.end:                                           ; preds = %entry
  %frombool = zext i1 %use_readline to i8
  tail call void @monitor_data_init(ptr noundef %call, i1 noundef zeroext false, i1 noundef zeroext false, i1 noundef zeroext false) #19
  %use_readline4 = getelementptr inbounds nuw i8, ptr %call, i64 168
  store i8 %frombool, ptr %use_readline4, align 8
  br i1 %use_readline, label %if.then8, label %if.end10

if.then8:                                         ; preds = %if.end
  %call9 = tail call ptr @readline_init(ptr noundef nonnull @monitor_readline_printf, ptr noundef nonnull @monitor_readline_flush, ptr noundef nonnull %call, ptr noundef nonnull @monitor_find_completion) #19
  %rs = getelementptr inbounds nuw i8, ptr %call, i64 176
  store ptr %call9, ptr %rs, align 8
  %tobool.not.i = icmp eq ptr %call9, null
  br i1 %tobool.not.i, label %if.end10, label %if.end.i

if.end.i:                                         ; preds = %if.then8
  tail call void @readline_start(ptr noundef nonnull %call9, ptr noundef nonnull @.str, i32 noundef 0, ptr noundef nonnull @monitor_command_cb, ptr noundef null) #19
  br label %if.end10

if.end10:                                         ; preds = %if.end.i, %if.then8, %if.end
  tail call void @qemu_chr_fe_set_handlers(ptr noundef nonnull %call, ptr noundef nonnull @monitor_can_read, ptr noundef nonnull @monitor_read, ptr noundef nonnull @monitor_event, ptr noundef null, ptr noundef nonnull %call, ptr noundef null, i1 noundef zeroext true) #19
  tail call void @monitor_list_append(ptr noundef nonnull %call) #19
  br label %return

return:                                           ; preds = %if.end10, %if.then
  ret void
}